(lp0
(dp1
S'AliceBlue'
p2
(lp3
I240
aI248
aI255
asa(dp4
S'AntiqueWhite'
p5
(lp6
I250
aI235
aI215
asa(dp7
S'AntiqueWhite1'
p8
(lp9
I255
aI239
aI219
asa(dp10
S'AntiqueWhite2'
p11
(lp12
I238
aI223
aI204
asa(dp13
S'AntiqueWhite3'
p14
(lp15
I205
aI192
aI176
asa(dp16
S'AntiqueWhite4'
p17
(lp18
I139
aI131
aI120
asa(dp19
S'aqua'
p20
(lp21
I0
aI255
aI255
asa(dp22
S'aquamarine'
p23
(lp24
I127
aI255
aI212
asa(dp25
S'aquamarine1'
p26
(lp27
I127
aI255
aI212
asa(dp28
S'aquamarine2'
p29
(lp30
I118
aI238
aI198
asa(dp31
S'aquamarine3'
p32
(lp33
I102
aI205
aI170
asa(dp34
S'aquamarine4'
p35
(lp36
I69
aI139
aI116
asa(dp37
S'azure'
p38
(lp39
I240
aI255
aI255
asa(dp40
S'azure1'
p41
(lp42
I240
aI255
aI255
asa(dp43
S'azure2'
p44
(lp45
I224
aI238
aI238
asa(dp46
S'azure3'
p47
(lp48
I193
aI205
aI205
asa(dp49
S'azure4'
p50
(lp51
I131
aI139
aI139
asa(dp52
S'beige'
p53
(lp54
I245
aI245
aI220
asa(dp55
S'bisque'
p56
(lp57
I255
aI228
aI196
asa(dp58
S'bisque1'
p59
(lp60
I255
aI228
aI196
asa(dp61
S'bisque2'
p62
(lp63
I238
aI213
aI183
asa(dp64
S'bisque3'
p65
(lp66
I205
aI183
aI158
asa(dp67
S'bisque4'
p68
(lp69
I139
aI125
aI107
asa(dp70
S'black'
p71
(lp72
I0
aI0
aI0
asa(dp73
S'BlanchedAlmond'
p74
(lp75
I255
aI235
aI205
asa(dp76
S'blue'
p77
(lp78
I0
aI0
aI255
asa(dp79
S'blue1'
p80
(lp81
I0
aI0
aI255
asa(dp82
S'blue2'
p83
(lp84
I0
aI0
aI238
asa(dp85
S'blue3'
p86
(lp87
I0
aI0
aI205
asa(dp88
S'blue4'
p89
(lp90
I0
aI0
aI139
asa(dp91
S'BlueViolet'
p92
(lp93
I138
aI43
aI226
asa(dp94
S'brown'
p95
(lp96
I165
aI42
aI42
asa(dp97
S'brown1'
p98
(lp99
I255
aI64
aI64
asa(dp100
S'brown2'
p101
(lp102
I238
aI59
aI59
asa(dp103
S'brown3'
p104
(lp105
I205
aI51
aI51
asa(dp106
S'brown4'
p107
(lp108
I139
aI35
aI35
asa(dp109
S'burlywood'
p110
(lp111
I222
aI184
aI135
asa(dp112
S'burlywood1'
p113
(lp114
I255
aI211
aI155
asa(dp115
S'burlywood2'
p116
(lp117
I238
aI197
aI145
asa(dp118
S'burlywood3'
p119
(lp120
I205
aI170
aI125
asa(dp121
S'burlywood4'
p122
(lp123
I139
aI115
aI85
asa(dp124
S'CadetBlue'
p125
(lp126
I95
aI158
aI160
asa(dp127
S'CadetBlue1'
p128
(lp129
I152
aI245
aI255
asa(dp130
S'CadetBlue2'
p131
(lp132
I142
aI229
aI238
asa(dp133
S'CadetBlue3'
p134
(lp135
I122
aI197
aI205
asa(dp136
S'CadetBlue4'
p137
(lp138
I83
aI134
aI139
asa(dp139
S'chartreuse'
p140
(lp141
I127
aI255
aI0
asa(dp142
S'chartreuse1'
p143
(lp144
I127
aI255
aI0
asa(dp145
S'chartreuse2'
p146
(lp147
I118
aI238
aI0
asa(dp148
S'chartreuse3'
p149
(lp150
I102
aI205
aI0
asa(dp151
S'chartreuse4'
p152
(lp153
I69
aI139
aI0
asa(dp154
S'chocolate'
p155
(lp156
I210
aI105
aI30
asa(dp157
S'chocolate1'
p158
(lp159
I255
aI127
aI36
asa(dp160
S'chocolate2'
p161
(lp162
I238
aI118
aI33
asa(dp163
S'chocolate3'
p164
(lp165
I205
aI102
aI29
asa(dp166
S'chocolate4'
p167
(lp168
I139
aI69
aI19
asa(dp169
S'coral'
p170
(lp171
I255
aI127
aI80
asa(dp172
S'coral1'
p173
(lp174
I255
aI114
aI86
asa(dp175
S'coral2'
p176
(lp177
I238
aI106
aI80
asa(dp178
S'coral3'
p179
(lp180
I205
aI91
aI69
asa(dp181
S'coral4'
p182
(lp183
I139
aI62
aI47
asa(dp184
S'CornflowerBlue'
p185
(lp186
I100
aI149
aI237
asa(dp187
S'cornsilk'
p188
(lp189
I255
aI248
aI220
asa(dp190
S'cornsilk1'
p191
(lp192
I255
aI248
aI220
asa(dp193
S'cornsilk2'
p194
(lp195
I238
aI232
aI205
asa(dp196
S'cornsilk3'
p197
(lp198
I205
aI200
aI177
asa(dp199
S'cornsilk4'
p200
(lp201
I139
aI136
aI120
asa(dp202
S'crimson'
p203
(lp204
I220
aI20
aI60
asa(dp205
S'cyan'
p206
(lp207
I0
aI255
aI255
asa(dp208
S'cyan1'
p209
(lp210
I0
aI255
aI255
asa(dp211
S'cyan2'
p212
(lp213
I0
aI238
aI238
asa(dp214
S'cyan3'
p215
(lp216
I0
aI205
aI205
asa(dp217
S'cyan4'
p218
(lp219
I0
aI139
aI139
asa(dp220
S'DarkBlue'
p221
(lp222
I0
aI0
aI139
asa(dp223
S'DarkCyan'
p224
(lp225
I0
aI139
aI139
asa(dp226
S'DarkGoldenrod'
p227
(lp228
I184
aI134
aI11
asa(dp229
S'DarkGoldenrod1'
p230
(lp231
I255
aI185
aI15
asa(dp232
S'DarkGoldenrod2'
p233
(lp234
I238
aI173
aI14
asa(dp235
S'DarkGoldenrod3'
p236
(lp237
I205
aI149
aI12
asa(dp238
S'DarkGoldenrod4'
p239
(lp240
I139
aI101
aI8
asa(dp241
S'DarkGray'
p242
(lp243
I169
aI169
aI169
asa(dp244
S'DarkGreen'
p245
(lp246
I0
aI100
aI0
asa(dp247
S'DarkGrey'
p248
(lp249
I169
aI169
aI169
asa(dp250
S'DarkKhaki'
p251
(lp252
I189
aI183
aI107
asa(dp253
S'DarkMagenta'
p254
(lp255
I139
aI0
aI139
asa(dp256
S'DarkOliveGreen'
p257
(lp258
I85
aI107
aI47
asa(dp259
S'DarkOliveGreen1'
p260
(lp261
I202
aI255
aI112
asa(dp262
S'DarkOliveGreen2'
p263
(lp264
I188
aI238
aI104
asa(dp265
S'DarkOliveGreen3'
p266
(lp267
I162
aI205
aI90
asa(dp268
S'DarkOliveGreen4'
p269
(lp270
I110
aI139
aI61
asa(dp271
S'DarkOrange'
p272
(lp273
I255
aI140
aI0
asa(dp274
S'DarkOrange1'
p275
(lp276
I255
aI127
aI0
asa(dp277
S'DarkOrange2'
p278
(lp279
I238
aI118
aI0
asa(dp280
S'DarkOrange3'
p281
(lp282
I205
aI102
aI0
asa(dp283
S'DarkOrange4'
p284
(lp285
I139
aI69
aI0
asa(dp286
S'DarkOrchid'
p287
(lp288
I153
aI50
aI204
asa(dp289
S'DarkOrchid1'
p290
(lp291
I191
aI62
aI255
asa(dp292
S'DarkOrchid2'
p293
(lp294
I178
aI58
aI238
asa(dp295
S'DarkOrchid3'
p296
(lp297
I154
aI50
aI205
asa(dp298
S'DarkOrchid4'
p299
(lp300
I104
aI34
aI139
asa(dp301
S'DarkRed'
p302
(lp303
I139
aI0
aI0
asa(dp304
S'DarkSalmon'
p305
(lp306
I233
aI150
aI122
asa(dp307
S'DarkSeaGreen'
p308
(lp309
I143
aI188
aI143
asa(dp310
S'DarkSeaGreen1'
p311
(lp312
I193
aI255
aI193
asa(dp313
S'DarkSeaGreen2'
p314
(lp315
I180
aI238
aI180
asa(dp316
S'DarkSeaGreen3'
p317
(lp318
I155
aI205
aI155
asa(dp319
S'DarkSeaGreen4'
p320
(lp321
I105
aI139
aI105
asa(dp322
S'DarkSlateBlue'
p323
(lp324
I72
aI61
aI139
asa(dp325
S'DarkSlateGray'
p326
(lp327
I47
aI79
aI79
asa(dp328
S'DarkSlateGray1'
p329
(lp330
I151
aI255
aI255
asa(dp331
S'DarkSlateGray2'
p332
(lp333
I141
aI238
aI238
asa(dp334
S'DarkSlateGray3'
p335
(lp336
I121
aI205
aI205
asa(dp337
S'DarkSlateGray4'
p338
(lp339
I82
aI139
aI139
asa(dp340
S'DarkSlateGrey'
p341
(lp342
I47
aI79
aI79
asa(dp343
S'DarkTurquoise'
p344
(lp345
I0
aI206
aI209
asa(dp346
S'DarkViolet'
p347
(lp348
I148
aI0
aI211
asa(dp349
S'DeepPink'
p350
(lp351
I255
aI20
aI147
asa(dp352
S'DeepPink1'
p353
(lp354
I255
aI20
aI147
asa(dp355
S'DeepPink2'
p356
(lp357
I238
aI18
aI137
asa(dp358
S'DeepPink3'
p359
(lp360
I205
aI16
aI118
asa(dp361
S'DeepPink4'
p362
(lp363
I139
aI10
aI80
asa(dp364
S'DeepSkyBlue'
p365
(lp366
I0
aI191
aI255
asa(dp367
S'DeepSkyBlue1'
p368
(lp369
I0
aI191
aI255
asa(dp370
S'DeepSkyBlue2'
p371
(lp372
I0
aI178
aI238
asa(dp373
S'DeepSkyBlue3'
p374
(lp375
I0
aI154
aI205
asa(dp376
S'DeepSkyBlue4'
p377
(lp378
I0
aI104
aI139
asa(dp379
S'DimGray'
p380
(lp381
I105
aI105
aI105
asa(dp382
S'DimGrey'
p383
(lp384
I105
aI105
aI105
asa(dp385
S'DodgerBlue'
p386
(lp387
I30
aI144
aI255
asa(dp388
S'DodgerBlue1'
p389
(lp390
I30
aI144
aI255
asa(dp391
S'DodgerBlue2'
p392
(lp393
I28
aI134
aI238
asa(dp394
S'DodgerBlue3'
p395
(lp396
I24
aI116
aI205
asa(dp397
S'DodgerBlue4'
p398
(lp399
I16
aI78
aI139
asa(dp400
S'firebrick'
p401
(lp402
I178
aI34
aI34
asa(dp403
S'firebrick1'
p404
(lp405
I255
aI48
aI48
asa(dp406
S'firebrick2'
p407
(lp408
I238
aI44
aI44
asa(dp409
S'firebrick3'
p410
(lp411
I205
aI38
aI38
asa(dp412
S'firebrick4'
p413
(lp414
I139
aI26
aI26
asa(dp415
S'FloralWhite'
p416
(lp417
I255
aI250
aI240
asa(dp418
S'ForestGreen'
p419
(lp420
I34
aI139
aI34
asa(dp421
S'fractal'
p422
(lp423
I128
aI128
aI128
asa(dp424
S'freeze'
p425
(lp426
I0
aI0
aI0
asa(dp427
S'fuchsia'
p428
(lp429
I255
aI0
aI255
asa(dp430
S'gainsboro'
p431
(lp432
I220
aI220
aI220
asa(dp433
S'GhostWhite'
p434
(lp435
I248
aI248
aI255
asa(dp436
S'gold'
p437
(lp438
I255
aI215
aI0
asa(dp439
S'gold1'
p440
(lp441
I255
aI215
aI0
asa(dp442
S'gold2'
p443
(lp444
I238
aI201
aI0
asa(dp445
S'gold3'
p446
(lp447
I205
aI173
aI0
asa(dp448
S'gold4'
p449
(lp450
I139
aI117
aI0
asa(dp451
S'goldenrod'
p452
(lp453
I218
aI165
aI32
asa(dp454
S'goldenrod1'
p455
(lp456
I255
aI193
aI37
asa(dp457
S'goldenrod2'
p458
(lp459
I238
aI180
aI34
asa(dp460
S'goldenrod3'
p461
(lp462
I205
aI155
aI29
asa(dp463
S'goldenrod4'
p464
(lp465
I139
aI105
aI20
asa(dp466
S'gray'
p467
(lp468
I126
aI126
aI126
asa(dp469
S'gray'
p470
(lp471
I190
aI190
aI190
asa(dp472
S'gray0'
p473
(lp474
I0
aI0
aI0
asa(dp475
S'gray1'
p476
(lp477
I3
aI3
aI3
asa(dp478
S'gray10'
p479
(lp480
I26
aI26
aI26
asa(dp481
S'gray100'
p482
(lp483
I255
aI255
aI255
asa(dp484
S'gray100'
p485
(lp486
I255
aI255
aI255
asa(dp487
S'gray11'
p488
(lp489
I28
aI28
aI28
asa(dp490
S'gray12'
p491
(lp492
I31
aI31
aI31
asa(dp493
S'gray13'
p494
(lp495
I33
aI33
aI33
asa(dp496
S'gray14'
p497
(lp498
I36
aI36
aI36
asa(dp499
S'gray15'
p500
(lp501
I38
aI38
aI38
asa(dp502
S'gray16'
p503
(lp504
I41
aI41
aI41
asa(dp505
S'gray17'
p506
(lp507
I43
aI43
aI43
asa(dp508
S'gray18'
p509
(lp510
I46
aI46
aI46
asa(dp511
S'gray19'
p512
(lp513
I48
aI48
aI48
asa(dp514
S'gray2'
p515
(lp516
I5
aI5
aI5
asa(dp517
S'gray20'
p518
(lp519
I51
aI51
aI51
asa(dp520
S'gray21'
p521
(lp522
I54
aI54
aI54
asa(dp523
S'gray22'
p524
(lp525
I56
aI56
aI56
asa(dp526
S'gray23'
p527
(lp528
I59
aI59
aI59
asa(dp529
S'gray24'
p530
(lp531
I61
aI61
aI61
asa(dp532
S'gray25'
p533
(lp534
I64
aI64
aI64
asa(dp535
S'gray26'
p536
(lp537
I66
aI66
aI66
asa(dp538
S'gray27'
p539
(lp540
I69
aI69
aI69
asa(dp541
S'gray28'
p542
(lp543
I71
aI71
aI71
asa(dp544
S'gray29'
p545
(lp546
I74
aI74
aI74
asa(dp547
S'gray3'
p548
(lp549
I8
aI8
aI8
asa(dp550
S'gray30'
p551
(lp552
I77
aI77
aI77
asa(dp553
S'gray31'
p554
(lp555
I79
aI79
aI79
asa(dp556
S'gray32'
p557
(lp558
I82
aI82
aI82
asa(dp559
S'gray33'
p560
(lp561
I84
aI84
aI84
asa(dp562
S'gray34'
p563
(lp564
I87
aI87
aI87
asa(dp565
S'gray35'
p566
(lp567
I89
aI89
aI89
asa(dp568
S'gray36'
p569
(lp570
I92
aI92
aI92
asa(dp571
S'gray37'
p572
(lp573
I94
aI94
aI94
asa(dp574
S'gray38'
p575
(lp576
I97
aI97
aI97
asa(dp577
S'gray39'
p578
(lp579
I99
aI99
aI99
asa(dp580
S'gray4'
p581
(lp582
I10
aI10
aI10
asa(dp583
S'gray40'
p584
(lp585
I102
aI102
aI102
asa(dp586
S'gray41'
p587
(lp588
I105
aI105
aI105
asa(dp589
S'gray42'
p590
(lp591
I107
aI107
aI107
asa(dp592
S'gray43'
p593
(lp594
I110
aI110
aI110
asa(dp595
S'gray44'
p596
(lp597
I112
aI112
aI112
asa(dp598
S'gray45'
p599
(lp600
I115
aI115
aI115
asa(dp601
S'gray46'
p602
(lp603
I117
aI117
aI117
asa(dp604
S'gray47'
p605
(lp606
I120
aI120
aI120
asa(dp607
S'gray48'
p608
(lp609
I122
aI122
aI122
asa(dp610
S'gray49'
p611
(lp612
I125
aI125
aI125
asa(dp613
S'gray5'
p614
(lp615
I13
aI13
aI13
asa(dp616
S'gray50'
p617
(lp618
I127
aI127
aI127
asa(dp619
S'gray51'
p620
(lp621
I130
aI130
aI130
asa(dp622
S'gray52'
p623
(lp624
I133
aI133
aI133
asa(dp625
S'gray53'
p626
(lp627
I135
aI135
aI135
asa(dp628
S'gray54'
p629
(lp630
I138
aI138
aI138
asa(dp631
S'gray55'
p632
(lp633
I140
aI140
aI140
asa(dp634
S'gray56'
p635
(lp636
I143
aI143
aI143
asa(dp637
S'gray57'
p638
(lp639
I145
aI145
aI145
asa(dp640
S'gray58'
p641
(lp642
I148
aI148
aI148
asa(dp643
S'gray59'
p644
(lp645
I150
aI150
aI150
asa(dp646
S'gray6'
p647
(lp648
I15
aI15
aI15
asa(dp649
S'gray60'
p650
(lp651
I153
aI153
aI153
asa(dp652
S'gray61'
p653
(lp654
I156
aI156
aI156
asa(dp655
S'gray62'
p656
(lp657
I158
aI158
aI158
asa(dp658
S'gray63'
p659
(lp660
I161
aI161
aI161
asa(dp661
S'gray64'
p662
(lp663
I163
aI163
aI163
asa(dp664
S'gray65'
p665
(lp666
I166
aI166
aI166
asa(dp667
S'gray66'
p668
(lp669
I168
aI168
aI168
asa(dp670
S'gray67'
p671
(lp672
I171
aI171
aI171
asa(dp673
S'gray68'
p674
(lp675
I173
aI173
aI173
asa(dp676
S'gray69'
p677
(lp678
I176
aI176
aI176
asa(dp679
S'gray7'
p680
(lp681
I18
aI18
aI18
asa(dp682
S'gray70'
p683
(lp684
I179
aI179
aI179
asa(dp685
S'gray71'
p686
(lp687
I181
aI181
aI181
asa(dp688
S'gray72'
p689
(lp690
I184
aI184
aI184
asa(dp691
S'gray73'
p692
(lp693
I186
aI186
aI186
asa(dp694
S'gray74'
p695
(lp696
I189
aI189
aI189
asa(dp697
S'gray75'
p698
(lp699
I191
aI191
aI191
asa(dp700
S'gray76'
p701
(lp702
I194
aI194
aI194
asa(dp703
S'gray77'
p704
(lp705
I196
aI196
aI196
asa(dp706
S'gray78'
p707
(lp708
I199
aI199
aI199
asa(dp709
S'gray79'
p710
(lp711
I201
aI201
aI201
asa(dp712
S'gray8'
p713
(lp714
I20
aI20
aI20
asa(dp715
S'gray80'
p716
(lp717
I204
aI204
aI204
asa(dp718
S'gray81'
p719
(lp720
I207
aI207
aI207
asa(dp721
S'gray82'
p722
(lp723
I209
aI209
aI209
asa(dp724
S'gray83'
p725
(lp726
I212
aI212
aI212
asa(dp727
S'gray84'
p728
(lp729
I214
aI214
aI214
asa(dp730
S'gray85'
p731
(lp732
I217
aI217
aI217
asa(dp733
S'gray86'
p734
(lp735
I219
aI219
aI219
asa(dp736
S'gray87'
p737
(lp738
I222
aI222
aI222
asa(dp739
S'gray88'
p740
(lp741
I224
aI224
aI224
asa(dp742
S'gray89'
p743
(lp744
I227
aI227
aI227
asa(dp745
S'gray9'
p746
(lp747
I23
aI23
aI23
asa(dp748
S'gray90'
p749
(lp750
I229
aI229
aI229
asa(dp751
S'gray91'
p752
(lp753
I232
aI232
aI232
asa(dp754
S'gray92'
p755
(lp756
I235
aI235
aI235
asa(dp757
S'gray93'
p758
(lp759
I237
aI237
aI237
asa(dp760
S'gray94'
p761
(lp762
I240
aI240
aI240
asa(dp763
S'gray95'
p764
(lp765
I242
aI242
aI242
asa(dp766
S'gray96'
p767
(lp768
I245
aI245
aI245
asa(dp769
S'gray97'
p770
(lp771
I247
aI247
aI247
asa(dp772
S'gray98'
p773
(lp774
I250
aI250
aI250
asa(dp775
S'gray99'
p776
(lp777
I252
aI252
aI252
asa(dp778
S'green'
p779
(lp780
I0
aI128
aI0
asa(dp781
S'green'
p782
(lp783
I0
aI255
aI0
asa(dp784
S'green1'
p785
(lp786
I0
aI255
aI0
asa(dp787
S'green2'
p788
(lp789
I0
aI238
aI0
asa(dp790
S'green3'
p791
(lp792
I0
aI205
aI0
asa(dp793
S'green4'
p794
(lp795
I0
aI139
aI0
asa(dp796
S'GreenYellow'
p797
(lp798
I173
aI255
aI47
asa(dp799
S'grey'
p800
(lp801
I190
aI190
aI190
asa(dp802
S'grey0'
p803
(lp804
I0
aI0
aI0
asa(dp805
S'grey1'
p806
(lp807
I3
aI3
aI3
asa(dp808
S'grey10'
p809
(lp810
I26
aI26
aI26
asa(dp811
S'grey100'
p812
(lp813
I255
aI255
aI255
asa(dp814
S'grey11'
p815
(lp816
I28
aI28
aI28
asa(dp817
S'grey12'
p818
(lp819
I31
aI31
aI31
asa(dp820
S'grey13'
p821
(lp822
I33
aI33
aI33
asa(dp823
S'grey14'
p824
(lp825
I36
aI36
aI36
asa(dp826
S'grey15'
p827
(lp828
I38
aI38
aI38
asa(dp829
S'grey16'
p830
(lp831
I41
aI41
aI41
asa(dp832
S'grey17'
p833
(lp834
I43
aI43
aI43
asa(dp835
S'grey18'
p836
(lp837
I46
aI46
aI46
asa(dp838
S'grey19'
p839
(lp840
I48
aI48
aI48
asa(dp841
S'grey2'
p842
(lp843
I5
aI5
aI5
asa(dp844
S'grey20'
p845
(lp846
I51
aI51
aI51
asa(dp847
S'grey21'
p848
(lp849
I54
aI54
aI54
asa(dp850
S'grey22'
p851
(lp852
I56
aI56
aI56
asa(dp853
S'grey23'
p854
(lp855
I59
aI59
aI59
asa(dp856
S'grey24'
p857
(lp858
I61
aI61
aI61
asa(dp859
S'grey25'
p860
(lp861
I64
aI64
aI64
asa(dp862
S'grey26'
p863
(lp864
I66
aI66
aI66
asa(dp865
S'grey27'
p866
(lp867
I69
aI69
aI69
asa(dp868
S'grey28'
p869
(lp870
I71
aI71
aI71
asa(dp871
S'grey29'
p872
(lp873
I74
aI74
aI74
asa(dp874
S'grey3'
p875
(lp876
I8
aI8
aI8
asa(dp877
S'grey30'
p878
(lp879
I77
aI77
aI77
asa(dp880
S'grey31'
p881
(lp882
I79
aI79
aI79
asa(dp883
S'grey32'
p884
(lp885
I82
aI82
aI82
asa(dp886
S'grey33'
p887
(lp888
I84
aI84
aI84
asa(dp889
S'grey34'
p890
(lp891
I87
aI87
aI87
asa(dp892
S'grey35'
p893
(lp894
I89
aI89
aI89
asa(dp895
S'grey36'
p896
(lp897
I92
aI92
aI92
asa(dp898
S'grey37'
p899
(lp900
I94
aI94
aI94
asa(dp901
S'grey38'
p902
(lp903
I97
aI97
aI97
asa(dp904
S'grey39'
p905
(lp906
I99
aI99
aI99
asa(dp907
S'grey4'
p908
(lp909
I10
aI10
aI10
asa(dp910
S'grey40'
p911
(lp912
I102
aI102
aI102
asa(dp913
S'grey41'
p914
(lp915
I105
aI105
aI105
asa(dp916
S'grey42'
p917
(lp918
I107
aI107
aI107
asa(dp919
S'grey43'
p920
(lp921
I110
aI110
aI110
asa(dp922
S'grey44'
p923
(lp924
I112
aI112
aI112
asa(dp925
S'grey45'
p926
(lp927
I115
aI115
aI115
asa(dp928
S'grey46'
p929
(lp930
I117
aI117
aI117
asa(dp931
S'grey47'
p932
(lp933
I120
aI120
aI120
asa(dp934
S'grey48'
p935
(lp936
I122
aI122
aI122
asa(dp937
S'grey49'
p938
(lp939
I125
aI125
aI125
asa(dp940
S'grey5'
p941
(lp942
I13
aI13
aI13
asa(dp943
S'grey50'
p944
(lp945
I127
aI127
aI127
asa(dp946
S'grey51'
p947
(lp948
I130
aI130
aI130
asa(dp949
S'grey52'
p950
(lp951
I133
aI133
aI133
asa(dp952
S'grey53'
p953
(lp954
I135
aI135
aI135
asa(dp955
S'grey54'
p956
(lp957
I138
aI138
aI138
asa(dp958
S'grey55'
p959
(lp960
I140
aI140
aI140
asa(dp961
S'grey56'
p962
(lp963
I143
aI143
aI143
asa(dp964
S'grey57'
p965
(lp966
I145
aI145
aI145
asa(dp967
S'grey58'
p968
(lp969
I148
aI148
aI148
asa(dp970
S'grey59'
p971
(lp972
I150
aI150
aI150
asa(dp973
S'grey6'
p974
(lp975
I15
aI15
aI15
asa(dp976
S'grey60'
p977
(lp978
I153
aI153
aI153
asa(dp979
S'grey61'
p980
(lp981
I156
aI156
aI156
asa(dp982
S'grey62'
p983
(lp984
I158
aI158
aI158
asa(dp985
S'grey63'
p986
(lp987
I161
aI161
aI161
asa(dp988
S'grey64'
p989
(lp990
I163
aI163
aI163
asa(dp991
S'grey65'
p992
(lp993
I166
aI166
aI166
asa(dp994
S'grey66'
p995
(lp996
I168
aI168
aI168
asa(dp997
S'grey67'
p998
(lp999
I171
aI171
aI171
asa(dp1000
S'grey68'
p1001
(lp1002
I173
aI173
aI173
asa(dp1003
S'grey69'
p1004
(lp1005
I176
aI176
aI176
asa(dp1006
S'grey7'
p1007
(lp1008
I18
aI18
aI18
asa(dp1009
S'grey70'
p1010
(lp1011
I179
aI179
aI179
asa(dp1012
S'grey71'
p1013
(lp1014
I181
aI181
aI181
asa(dp1015
S'grey72'
p1016
(lp1017
I184
aI184
aI184
asa(dp1018
S'grey73'
p1019
(lp1020
I186
aI186
aI186
asa(dp1021
S'grey74'
p1022
(lp1023
I189
aI189
aI189
asa(dp1024
S'grey75'
p1025
(lp1026
I191
aI191
aI191
asa(dp1027
S'grey76'
p1028
(lp1029
I194
aI194
aI194
asa(dp1030
S'grey77'
p1031
(lp1032
I196
aI196
aI196
asa(dp1033
S'grey78'
p1034
(lp1035
I199
aI199
aI199
asa(dp1036
S'grey79'
p1037
(lp1038
I201
aI201
aI201
asa(dp1039
S'grey8'
p1040
(lp1041
I20
aI20
aI20
asa(dp1042
S'grey80'
p1043
(lp1044
I204
aI204
aI204
asa(dp1045
S'grey81'
p1046
(lp1047
I207
aI207
aI207
asa(dp1048
S'grey82'
p1049
(lp1050
I209
aI209
aI209
asa(dp1051
S'grey83'
p1052
(lp1053
I212
aI212
aI212
asa(dp1054
S'grey84'
p1055
(lp1056
I214
aI214
aI214
asa(dp1057
S'grey85'
p1058
(lp1059
I217
aI217
aI217
asa(dp1060
S'grey86'
p1061
(lp1062
I219
aI219
aI219
asa(dp1063
S'grey87'
p1064
(lp1065
I222
aI222
aI222
asa(dp1066
S'grey88'
p1067
(lp1068
I224
aI224
aI224
asa(dp1069
S'grey89'
p1070
(lp1071
I227
aI227
aI227
asa(dp1072
S'grey9'
p1073
(lp1074
I23
aI23
aI23
asa(dp1075
S'grey90'
p1076
(lp1077
I229
aI229
aI229
asa(dp1078
S'grey91'
p1079
(lp1080
I232
aI232
aI232
asa(dp1081
S'grey92'
p1082
(lp1083
I235
aI235
aI235
asa(dp1084
S'grey93'
p1085
(lp1086
I237
aI237
aI237
asa(dp1087
S'grey94'
p1088
(lp1089
I240
aI240
aI240
asa(dp1090
S'grey95'
p1091
(lp1092
I242
aI242
aI242
asa(dp1093
S'grey96'
p1094
(lp1095
I245
aI245
aI245
asa(dp1096
S'grey97'
p1097
(lp1098
I247
aI247
aI247
asa(dp1099
S'grey98'
p1100
(lp1101
I250
aI250
aI250
asa(dp1102
S'grey99'
p1103
(lp1104
I252
aI252
aI252
asa(dp1105
S'honeydew'
p1106
(lp1107
I240
aI255
aI240
asa(dp1108
S'honeydew1'
p1109
(lp1110
I240
aI255
aI240
asa(dp1111
S'honeydew2'
p1112
(lp1113
I224
aI238
aI224
asa(dp1114
S'honeydew3'
p1115
(lp1116
I193
aI205
aI193
asa(dp1117
S'honeydew4'
p1118
(lp1119
I131
aI139
aI131
asa(dp1120
S'HotPink'
p1121
(lp1122
I255
aI105
aI180
asa(dp1123
S'HotPink1'
p1124
(lp1125
I255
aI110
aI180
asa(dp1126
S'HotPink2'
p1127
(lp1128
I238
aI106
aI167
asa(dp1129
S'HotPink3'
p1130
(lp1131
I205
aI96
aI144
asa(dp1132
S'HotPink4'
p1133
(lp1134
I139
aI58
aI98
asa(dp1135
S'IndianRed'
p1136
(lp1137
I205
aI92
aI92
asa(dp1138
S'IndianRed1'
p1139
(lp1140
I255
aI106
aI106
asa(dp1141
S'IndianRed2'
p1142
(lp1143
I238
aI99
aI99
asa(dp1144
S'IndianRed3'
p1145
(lp1146
I205
aI85
aI85
asa(dp1147
S'IndianRed4'
p1148
(lp1149
I139
aI58
aI58
asa(dp1150
S'indigo'
p1151
(lp1152
I75
aI0
aI130
asa(dp1153
S'ivory'
p1154
(lp1155
I255
aI255
aI240
asa(dp1156
S'ivory1'
p1157
(lp1158
I255
aI255
aI240
asa(dp1159
S'ivory2'
p1160
(lp1161
I238
aI238
aI224
asa(dp1162
S'ivory3'
p1163
(lp1164
I205
aI205
aI193
asa(dp1165
S'ivory4'
p1166
(lp1167
I139
aI139
aI131
asa(dp1168
S'khaki'
p1169
(lp1170
I240
aI230
aI140
asa(dp1171
S'khaki1'
p1172
(lp1173
I255
aI246
aI143
asa(dp1174
S'khaki2'
p1175
(lp1176
I238
aI230
aI133
asa(dp1177
S'khaki3'
p1178
(lp1179
I205
aI198
aI115
asa(dp1180
S'khaki4'
p1181
(lp1182
I139
aI134
aI78
asa(dp1183
S'lavender'
p1184
(lp1185
I230
aI230
aI250
asa(dp1186
S'LavenderBlush'
p1187
(lp1188
I255
aI240
aI245
asa(dp1189
S'LavenderBlush1'
p1190
(lp1191
I255
aI240
aI245
asa(dp1192
S'LavenderBlush2'
p1193
(lp1194
I238
aI224
aI229
asa(dp1195
S'LavenderBlush3'
p1196
(lp1197
I205
aI193
aI197
asa(dp1198
S'LavenderBlush4'
p1199
(lp1200
I139
aI131
aI134
asa(dp1201
S'LawnGreen'
p1202
(lp1203
I124
aI252
aI0
asa(dp1204
S'LemonChiffon'
p1205
(lp1206
I255
aI250
aI205
asa(dp1207
S'LemonChiffon1'
p1208
(lp1209
I255
aI250
aI205
asa(dp1210
S'LemonChiffon2'
p1211
(lp1212
I238
aI233
aI191
asa(dp1213
S'LemonChiffon3'
p1214
(lp1215
I205
aI201
aI165
asa(dp1216
S'LemonChiffon4'
p1217
(lp1218
I139
aI137
aI112
asa(dp1219
S'LightBlue'
p1220
(lp1221
I173
aI216
aI230
asa(dp1222
S'LightBlue1'
p1223
(lp1224
I191
aI239
aI255
asa(dp1225
S'LightBlue2'
p1226
(lp1227
I178
aI223
aI238
asa(dp1228
S'LightBlue3'
p1229
(lp1230
I154
aI192
aI205
asa(dp1231
S'LightBlue4'
p1232
(lp1233
I104
aI131
aI139
asa(dp1234
S'LightCoral'
p1235
(lp1236
I240
aI128
aI128
asa(dp1237
S'LightCyan'
p1238
(lp1239
I224
aI255
aI255
asa(dp1240
S'LightCyan1'
p1241
(lp1242
I224
aI255
aI255
asa(dp1243
S'LightCyan2'
p1244
(lp1245
I209
aI238
aI238
asa(dp1246
S'LightCyan3'
p1247
(lp1248
I180
aI205
aI205
asa(dp1249
S'LightCyan4'
p1250
(lp1251
I122
aI139
aI139
asa(dp1252
S'LightGoldenrod'
p1253
(lp1254
I238
aI221
aI130
asa(dp1255
S'LightGoldenrod1'
p1256
(lp1257
I255
aI236
aI139
asa(dp1258
S'LightGoldenrod2'
p1259
(lp1260
I238
aI220
aI130
asa(dp1261
S'LightGoldenrod3'
p1262
(lp1263
I205
aI190
aI112
asa(dp1264
S'LightGoldenrod4'
p1265
(lp1266
I139
aI129
aI76
asa(dp1267
S'LightGoldenrodYellow'
p1268
(lp1269
I250
aI250
aI210
asa(dp1270
S'LightGray'
p1271
(lp1272
I211
aI211
aI211
asa(dp1273
S'LightGreen'
p1274
(lp1275
I144
aI238
aI144
asa(dp1276
S'LightGrey'
p1277
(lp1278
I211
aI211
aI211
asa(dp1279
S'LightPink'
p1280
(lp1281
I255
aI182
aI193
asa(dp1282
S'LightPink1'
p1283
(lp1284
I255
aI174
aI185
asa(dp1285
S'LightPink2'
p1286
(lp1287
I238
aI162
aI173
asa(dp1288
S'LightPink3'
p1289
(lp1290
I205
aI140
aI149
asa(dp1291
S'LightPink4'
p1292
(lp1293
I139
aI95
aI101
asa(dp1294
S'LightSalmon'
p1295
(lp1296
I255
aI160
aI122
asa(dp1297
S'LightSalmon1'
p1298
(lp1299
I255
aI160
aI122
asa(dp1300
S'LightSalmon2'
p1301
(lp1302
I238
aI149
aI114
asa(dp1303
S'LightSalmon3'
p1304
(lp1305
I205
aI129
aI98
asa(dp1306
S'LightSalmon4'
p1307
(lp1308
I139
aI87
aI66
asa(dp1309
S'LightSeaGreen'
p1310
(lp1311
I32
aI178
aI170
asa(dp1312
S'LightSkyBlue'
p1313
(lp1314
I135
aI206
aI250
asa(dp1315
S'LightSkyBlue1'
p1316
(lp1317
I176
aI226
aI255
asa(dp1318
S'LightSkyBlue2'
p1319
(lp1320
I164
aI211
aI238
asa(dp1321
S'LightSkyBlue3'
p1322
(lp1323
I141
aI182
aI205
asa(dp1324
S'LightSkyBlue4'
p1325
(lp1326
I96
aI123
aI139
asa(dp1327
S'LightSlateBlue'
p1328
(lp1329
I132
aI112
aI255
asa(dp1330
S'LightSlateGray'
p1331
(lp1332
I119
aI136
aI153
asa(dp1333
S'LightSlateGrey'
p1334
(lp1335
I119
aI136
aI153
asa(dp1336
S'LightSteelBlue'
p1337
(lp1338
I176
aI196
aI222
asa(dp1339
S'LightSteelBlue1'
p1340
(lp1341
I202
aI225
aI255
asa(dp1342
S'LightSteelBlue2'
p1343
(lp1344
I188
aI210
aI238
asa(dp1345
S'LightSteelBlue3'
p1346
(lp1347
I162
aI181
aI205
asa(dp1348
S'LightSteelBlue4'
p1349
(lp1350
I110
aI123
aI139
asa(dp1351
S'LightYellow'
p1352
(lp1353
I255
aI255
aI224
asa(dp1354
S'LightYellow1'
p1355
(lp1356
I255
aI255
aI224
asa(dp1357
S'LightYellow2'
p1358
(lp1359
I238
aI238
aI209
asa(dp1360
S'LightYellow3'
p1361
(lp1362
I205
aI205
aI180
asa(dp1363
S'LightYellow4'
p1364
(lp1365
I139
aI139
aI122
asa(dp1366
S'lime'
p1367
(lp1368
I0
aI255
aI0
asa(dp1369
S'LimeGreen'
p1370
(lp1371
I50
aI205
aI50
asa(dp1372
S'linen'
p1373
(lp1374
I250
aI240
aI230
asa(dp1375
S'magenta'
p1376
(lp1377
I255
aI0
aI255
asa(dp1378
S'magenta1'
p1379
(lp1380
I255
aI0
aI255
asa(dp1381
S'magenta2'
p1382
(lp1383
I238
aI0
aI238
asa(dp1384
S'magenta3'
p1385
(lp1386
I205
aI0
aI205
asa(dp1387
S'magenta4'
p1388
(lp1389
I139
aI0
aI139
asa(dp1390
S'maroon'
p1391
(lp1392
I128
aI0
aI0
asa(dp1393
S'maroon'
p1394
(lp1395
I176
aI48
aI96
asa(dp1396
S'maroon1'
p1397
(lp1398
I255
aI52
aI179
asa(dp1399
S'maroon2'
p1400
(lp1401
I238
aI48
aI167
asa(dp1402
S'maroon3'
p1403
(lp1404
I205
aI41
aI144
asa(dp1405
S'maroon4'
p1406
(lp1407
I139
aI28
aI98
asa(dp1408
S'matte'
p1409
(lp1410
I0
aI0
aI0
asa(dp1411
S'MediumAquamarine'
p1412
(lp1413
I102
aI205
aI170
asa(dp1414
S'MediumBlue'
p1415
(lp1416
I0
aI0
aI205
asa(dp1417
S'MediumForestGreen'
p1418
(lp1419
I50
aI129
aI75
asa(dp1420
S'MediumGoldenRod'
p1421
(lp1422
I209
aI193
aI102
asa(dp1423
S'MediumOrchid'
p1424
(lp1425
I186
aI85
aI211
asa(dp1426
S'MediumOrchid1'
p1427
(lp1428
I224
aI102
aI255
asa(dp1429
S'MediumOrchid2'
p1430
(lp1431
I209
aI95
aI238
asa(dp1432
S'MediumOrchid3'
p1433
(lp1434
I180
aI82
aI205
asa(dp1435
S'MediumOrchid4'
p1436
(lp1437
I122
aI55
aI139
asa(dp1438
S'MediumPurple'
p1439
(lp1440
I147
aI112
aI219
asa(dp1441
S'MediumPurple1'
p1442
(lp1443
I171
aI130
aI255
asa(dp1444
S'MediumPurple2'
p1445
(lp1446
I159
aI121
aI238
asa(dp1447
S'MediumPurple3'
p1448
(lp1449
I137
aI104
aI205
asa(dp1450
S'MediumPurple4'
p1451
(lp1452
I93
aI71
aI139
asa(dp1453
S'MediumSeaGreen'
p1454
(lp1455
I60
aI179
aI113
asa(dp1456
S'MediumSlateBlue'
p1457
(lp1458
I123
aI104
aI238
asa(dp1459
S'MediumSpringGreen'
p1460
(lp1461
I0
aI250
aI154
asa(dp1462
S'MediumTurquoise'
p1463
(lp1464
I72
aI209
aI204
asa(dp1465
S'MediumVioletRed'
p1466
(lp1467
I199
aI21
aI133
asa(dp1468
S'MidnightBlue'
p1469
(lp1470
I25
aI25
aI112
asa(dp1471
S'MintCream'
p1472
(lp1473
I245
aI255
aI250
asa(dp1474
S'MistyRose'
p1475
(lp1476
I255
aI228
aI225
asa(dp1477
S'MistyRose1'
p1478
(lp1479
I255
aI228
aI225
asa(dp1480
S'MistyRose2'
p1481
(lp1482
I238
aI213
aI210
asa(dp1483
S'MistyRose3'
p1484
(lp1485
I205
aI183
aI181
asa(dp1486
S'MistyRose4'
p1487
(lp1488
I139
aI125
aI123
asa(dp1489
S'moccasin'
p1490
(lp1491
I255
aI228
aI181
asa(dp1492
S'NavajoWhite'
p1493
(lp1494
I255
aI222
aI173
asa(dp1495
S'NavajoWhite1'
p1496
(lp1497
I255
aI222
aI173
asa(dp1498
S'NavajoWhite2'
p1499
(lp1500
I238
aI207
aI161
asa(dp1501
S'NavajoWhite3'
p1502
(lp1503
I205
aI179
aI139
asa(dp1504
S'NavajoWhite4'
p1505
(lp1506
I139
aI121
aI94
asa(dp1507
S'navy'
p1508
(lp1509
I0
aI0
aI128
asa(dp1510
S'NavyBlue'
p1511
(lp1512
I0
aI0
aI128
asa(dp1513
S'none'
p1514
(lp1515
I0
aI0
aI0
asa(dp1516
S'OldLace'
p1517
(lp1518
I253
aI245
aI230
asa(dp1519
S'olive'
p1520
(lp1521
I128
aI128
aI0
asa(dp1522
S'OliveDrab'
p1523
(lp1524
I107
aI142
aI35
asa(dp1525
S'OliveDrab1'
p1526
(lp1527
I192
aI255
aI62
asa(dp1528
S'OliveDrab2'
p1529
(lp1530
I179
aI238
aI58
asa(dp1531
S'OliveDrab3'
p1532
(lp1533
I154
aI205
aI50
asa(dp1534
S'OliveDrab4'
p1535
(lp1536
I105
aI139
aI34
asa(dp1537
S'opaque'
p1538
(lp1539
I0
aI0
aI0
asa(dp1540
S'orange'
p1541
(lp1542
I255
aI165
aI0
asa(dp1543
S'orange1'
p1544
(lp1545
I255
aI165
aI0
asa(dp1546
S'orange2'
p1547
(lp1548
I238
aI154
aI0
asa(dp1549
S'orange3'
p1550
(lp1551
I205
aI133
aI0
asa(dp1552
S'orange4'
p1553
(lp1554
I139
aI90
aI0
asa(dp1555
S'OrangeRed'
p1556
(lp1557
I255
aI69
aI0
asa(dp1558
S'OrangeRed1'
p1559
(lp1560
I255
aI69
aI0
asa(dp1561
S'OrangeRed2'
p1562
(lp1563
I238
aI64
aI0
asa(dp1564
S'OrangeRed3'
p1565
(lp1566
I205
aI55
aI0
asa(dp1567
S'OrangeRed4'
p1568
(lp1569
I139
aI37
aI0
asa(dp1570
S'orchid'
p1571
(lp1572
I218
aI112
aI214
asa(dp1573
S'orchid1'
p1574
(lp1575
I255
aI131
aI250
asa(dp1576
S'orchid2'
p1577
(lp1578
I238
aI122
aI233
asa(dp1579
S'orchid3'
p1580
(lp1581
I205
aI105
aI201
asa(dp1582
S'orchid4'
p1583
(lp1584
I139
aI71
aI137
asa(dp1585
S'PaleGoldenrod'
p1586
(lp1587
I238
aI232
aI170
asa(dp1588
S'PaleGreen'
p1589
(lp1590
I152
aI251
aI152
asa(dp1591
S'PaleGreen1'
p1592
(lp1593
I154
aI255
aI154
asa(dp1594
S'PaleGreen2'
p1595
(lp1596
I144
aI238
aI144
asa(dp1597
S'PaleGreen3'
p1598
(lp1599
I124
aI205
aI124
asa(dp1600
S'PaleGreen4'
p1601
(lp1602
I84
aI139
aI84
asa(dp1603
S'PaleTurquoise'
p1604
(lp1605
I175
aI238
aI238
asa(dp1606
S'PaleTurquoise1'
p1607
(lp1608
I187
aI255
aI255
asa(dp1609
S'PaleTurquoise2'
p1610
(lp1611
I174
aI238
aI238
asa(dp1612
S'PaleTurquoise3'
p1613
(lp1614
I150
aI205
aI205
asa(dp1615
S'PaleTurquoise4'
p1616
(lp1617
I102
aI139
aI139
asa(dp1618
S'PaleVioletRed'
p1619
(lp1620
I219
aI112
aI147
asa(dp1621
S'PaleVioletRed1'
p1622
(lp1623
I255
aI130
aI171
asa(dp1624
S'PaleVioletRed2'
p1625
(lp1626
I238
aI121
aI159
asa(dp1627
S'PaleVioletRed3'
p1628
(lp1629
I205
aI104
aI137
asa(dp1630
S'PaleVioletRed4'
p1631
(lp1632
I139
aI71
aI93
asa(dp1633
S'PapayaWhip'
p1634
(lp1635
I255
aI239
aI213
asa(dp1636
S'PeachPuff'
p1637
(lp1638
I255
aI218
aI185
asa(dp1639
S'PeachPuff1'
p1640
(lp1641
I255
aI218
aI185
asa(dp1642
S'PeachPuff2'
p1643
(lp1644
I238
aI203
aI173
asa(dp1645
S'PeachPuff3'
p1646
(lp1647
I205
aI175
aI149
asa(dp1648
S'PeachPuff4'
p1649
(lp1650
I139
aI119
aI101
asa(dp1651
S'peru'
p1652
(lp1653
I205
aI133
aI63
asa(dp1654
S'pink'
p1655
(lp1656
I255
aI192
aI203
asa(dp1657
S'pink1'
p1658
(lp1659
I255
aI181
aI197
asa(dp1660
S'pink2'
p1661
(lp1662
I238
aI169
aI184
asa(dp1663
S'pink3'
p1664
(lp1665
I205
aI145
aI158
asa(dp1666
S'pink4'
p1667
(lp1668
I139
aI99
aI108
asa(dp1669
S'plum'
p1670
(lp1671
I221
aI160
aI221
asa(dp1672
S'plum1'
p1673
(lp1674
I255
aI187
aI255
asa(dp1675
S'plum2'
p1676
(lp1677
I238
aI174
aI238
asa(dp1678
S'plum3'
p1679
(lp1680
I205
aI150
aI205
asa(dp1681
S'plum4'
p1682
(lp1683
I139
aI102
aI139
asa(dp1684
S'PowderBlue'
p1685
(lp1686
I176
aI224
aI230
asa(dp1687
S'purple'
p1688
(lp1689
I128
aI0
aI128
asa(dp1690
S'purple'
p1691
(lp1692
I160
aI32
aI240
asa(dp1693
S'purple1'
p1694
(lp1695
I155
aI48
aI255
asa(dp1696
S'purple2'
p1697
(lp1698
I145
aI44
aI238
asa(dp1699
S'purple3'
p1700
(lp1701
I125
aI38
aI205
asa(dp1702
S'purple4'
p1703
(lp1704
I85
aI26
aI139
asa(dp1705
S'red'
p1706
(lp1707
I255
aI0
aI0
asa(dp1708
S'red1'
p1709
(lp1710
I255
aI0
aI0
asa(dp1711
S'red2'
p1712
(lp1713
I238
aI0
aI0
asa(dp1714
S'red3'
p1715
(lp1716
I205
aI0
aI0
asa(dp1717
S'red4'
p1718
(lp1719
I139
aI0
aI0
asa(dp1720
S'RosyBrown'
p1721
(lp1722
I188
aI143
aI143
asa(dp1723
S'RosyBrown1'
p1724
(lp1725
I255
aI193
aI193
asa(dp1726
S'RosyBrown2'
p1727
(lp1728
I238
aI180
aI180
asa(dp1729
S'RosyBrown3'
p1730
(lp1731
I205
aI155
aI155
asa(dp1732
S'RosyBrown4'
p1733
(lp1734
I139
aI105
aI105
asa(dp1735
S'RoyalBlue'
p1736
(lp1737
I65
aI105
aI225
asa(dp1738
S'RoyalBlue1'
p1739
(lp1740
I72
aI118
aI255
asa(dp1741
S'RoyalBlue2'
p1742
(lp1743
I67
aI110
aI238
asa(dp1744
S'RoyalBlue3'
p1745
(lp1746
I58
aI95
aI205
asa(dp1747
S'RoyalBlue4'
p1748
(lp1749
I39
aI64
aI139
asa(dp1750
S'SaddleBrown'
p1751
(lp1752
I139
aI69
aI19
asa(dp1753
S'salmon'
p1754
(lp1755
I250
aI128
aI114
asa(dp1756
S'salmon1'
p1757
(lp1758
I255
aI140
aI105
asa(dp1759
S'salmon2'
p1760
(lp1761
I238
aI130
aI98
asa(dp1762
S'salmon3'
p1763
(lp1764
I205
aI112
aI84
asa(dp1765
S'salmon4'
p1766
(lp1767
I139
aI76
aI57
asa(dp1768
S'SandyBrown'
p1769
(lp1770
I244
aI164
aI96
asa(dp1771
S'SeaGreen'
p1772
(lp1773
I46
aI139
aI87
asa(dp1774
S'SeaGreen1'
p1775
(lp1776
I84
aI255
aI159
asa(dp1777
S'SeaGreen2'
p1778
(lp1779
I78
aI238
aI148
asa(dp1780
S'SeaGreen3'
p1781
(lp1782
I67
aI205
aI128
asa(dp1783
S'SeaGreen4'
p1784
(lp1785
I46
aI139
aI87
asa(dp1786
S'seashell'
p1787
(lp1788
I255
aI245
aI238
asa(dp1789
S'seashell1'
p1790
(lp1791
I255
aI245
aI238
asa(dp1792
S'seashell2'
p1793
(lp1794
I238
aI229
aI222
asa(dp1795
S'seashell3'
p1796
(lp1797
I205
aI197
aI191
asa(dp1798
S'seashell4'
p1799
(lp1800
I139
aI134
aI130
asa(dp1801
S'sienna'
p1802
(lp1803
I160
aI82
aI45
asa(dp1804
S'sienna1'
p1805
(lp1806
I255
aI130
aI71
asa(dp1807
S'sienna2'
p1808
(lp1809
I238
aI121
aI66
asa(dp1810
S'sienna3'
p1811
(lp1812
I205
aI104
aI57
asa(dp1813
S'sienna4'
p1814
(lp1815
I139
aI71
aI38
asa(dp1816
S'silver'
p1817
(lp1818
I192
aI192
aI192
asa(dp1819
S'SkyBlue'
p1820
(lp1821
I135
aI206
aI235
asa(dp1822
S'SkyBlue1'
p1823
(lp1824
I135
aI206
aI255
asa(dp1825
S'SkyBlue2'
p1826
(lp1827
I126
aI192
aI238
asa(dp1828
S'SkyBlue3'
p1829
(lp1830
I108
aI166
aI205
asa(dp1831
S'SkyBlue4'
p1832
(lp1833
I74
aI112
aI139
asa(dp1834
S'SlateBlue'
p1835
(lp1836
I106
aI90
aI205
asa(dp1837
S'SlateBlue1'
p1838
(lp1839
I131
aI111
aI255
asa(dp1840
S'SlateBlue2'
p1841
(lp1842
I122
aI103
aI238
asa(dp1843
S'SlateBlue3'
p1844
(lp1845
I105
aI89
aI205
asa(dp1846
S'SlateBlue4'
p1847
(lp1848
I71
aI60
aI139
asa(dp1849
S'SlateGray'
p1850
(lp1851
I112
aI128
aI144
asa(dp1852
S'SlateGray1'
p1853
(lp1854
I198
aI226
aI255
asa(dp1855
S'SlateGray2'
p1856
(lp1857
I185
aI211
aI238
asa(dp1858
S'SlateGray3'
p1859
(lp1860
I159
aI182
aI205
asa(dp1861
S'SlateGray4'
p1862
(lp1863
I108
aI123
aI139
asa(dp1864
S'SlateGrey'
p1865
(lp1866
I112
aI128
aI144
asa(dp1867
S'snow'
p1868
(lp1869
I255
aI250
aI250
asa(dp1870
S'snow1'
p1871
(lp1872
I255
aI250
aI250
asa(dp1873
S'snow2'
p1874
(lp1875
I238
aI233
aI233
asa(dp1876
S'snow3'
p1877
(lp1878
I205
aI201
aI201
asa(dp1879
S'snow4'
p1880
(lp1881
I139
aI137
aI137
asa(dp1882
S'SpringGreen'
p1883
(lp1884
I0
aI255
aI127
asa(dp1885
S'SpringGreen1'
p1886
(lp1887
I0
aI255
aI127
asa(dp1888
S'SpringGreen2'
p1889
(lp1890
I0
aI238
aI118
asa(dp1891
S'SpringGreen3'
p1892
(lp1893
I0
aI205
aI102
asa(dp1894
S'SpringGreen4'
p1895
(lp1896
I0
aI139
aI69
asa(dp1897
S'SteelBlue'
p1898
(lp1899
I70
aI130
aI180
asa(dp1900
S'SteelBlue1'
p1901
(lp1902
I99
aI184
aI255
asa(dp1903
S'SteelBlue2'
p1904
(lp1905
I92
aI172
aI238
asa(dp1906
S'SteelBlue3'
p1907
(lp1908
I79
aI148
aI205
asa(dp1909
S'SteelBlue4'
p1910
(lp1911
I54
aI100
aI139
asa(dp1912
S'tan'
p1913
(lp1914
I210
aI180
aI140
asa(dp1915
S'tan1'
p1916
(lp1917
I255
aI165
aI79
asa(dp1918
S'tan2'
p1919
(lp1920
I238
aI154
aI73
asa(dp1921
S'tan3'
p1922
(lp1923
I205
aI133
aI63
asa(dp1924
S'tan4'
p1925
(lp1926
I139
aI90
aI43
asa(dp1927
S'teal'
p1928
(lp1929
I0
aI128
aI128
asa(dp1930
S'thistle'
p1931
(lp1932
I216
aI191
aI216
asa(dp1933
S'thistle1'
p1934
(lp1935
I255
aI225
aI255
asa(dp1936
S'thistle2'
p1937
(lp1938
I238
aI210
aI238
asa(dp1939
S'thistle3'
p1940
(lp1941
I205
aI181
aI205
asa(dp1942
S'thistle4'
p1943
(lp1944
I139
aI123
aI139
asa(dp1945
S'tomato'
p1946
(lp1947
I255
aI99
aI71
asa(dp1948
S'tomato1'
p1949
(lp1950
I255
aI99
aI71
asa(dp1951
S'tomato2'
p1952
(lp1953
I238
aI92
aI66
asa(dp1954
S'tomato3'
p1955
(lp1956
I205
aI79
aI57
asa(dp1957
S'tomato4'
p1958
(lp1959
I139
aI54
aI38
asa(dp1960
S'transparent'
p1961
(lp1962
I0
aI0
aI0
asa(dp1963
S'turquoise'
p1964
(lp1965
I64
aI224
aI208
asa(dp1966
S'turquoise1'
p1967
(lp1968
I0
aI245
aI255
asa(dp1969
S'turquoise2'
p1970
(lp1971
I0
aI229
aI238
asa(dp1972
S'turquoise3'
p1973
(lp1974
I0
aI197
aI205
asa(dp1975
S'turquoise4'
p1976
(lp1977
I0
aI134
aI139
asa(dp1978
S'violet'
p1979
(lp1980
I238
aI130
aI238
asa(dp1981
S'VioletRed'
p1982
(lp1983
I208
aI32
aI144
asa(dp1984
S'VioletRed1'
p1985
(lp1986
I255
aI62
aI150
asa(dp1987
S'VioletRed2'
p1988
(lp1989
I238
aI58
aI140
asa(dp1990
S'VioletRed3'
p1991
(lp1992
I205
aI50
aI120
asa(dp1993
S'VioletRed4'
p1994
(lp1995
I139
aI34
aI82
asa(dp1996
S'wheat'
p1997
(lp1998
I245
aI222
aI179
asa(dp1999
S'wheat1'
p2000
(lp2001
I255
aI231
aI186
asa(dp2002
S'wheat2'
p2003
(lp2004
I238
aI216
aI174
asa(dp2005
S'wheat3'
p2006
(lp2007
I205
aI186
aI150
asa(dp2008
S'wheat4'
p2009
(lp2010
I139
aI126
aI102
asa(dp2011
S'white'
p2012
(lp2013
I255
aI255
aI255
asa(dp2014
S'WhiteSmoke'
p2015
(lp2016
I245
aI245
aI245
asa(dp2017
S'yellow'
p2018
(lp2019
I255
aI255
aI0
asa(dp2020
S'yellow1'
p2021
(lp2022
I255
aI255
aI0
asa(dp2023
S'yellow2'
p2024
(lp2025
I238
aI238
aI0
asa(dp2026
S'yellow3'
p2027
(lp2028
I205
aI205
aI0
asa(dp2029
S'yellow4'
p2030
(lp2031
I139
aI139
aI0
asa(dp2032
S'YellowGreen'
p2033
(lp2034
I154
aI205
aI50
asa.